; Function Attrs: mustprogress nofree norecurse nosync nounwind willreturn memory(read, inaccessiblemem: none) uwtable
define hidden noundef nonnull align 8 dereferenceable(64) ptr @_ZNK4cvc58internal6theory5arith6linear14ArithVariables17getSafeAssignmentEj(ptr nocapture noundef nonnull readonly align 8 dereferenceable(568) %this, i32 noundef %x) local_unnamed_addr #7 align 2 {
entry:
  %conv.i = zext i32 %x to i64
  %d_posVector.i.i = getelementptr inbounds i8, ptr %this, i64 96
  %_M_finish.i.i.i = getelementptr inbounds i8, ptr %this, i64 104
  %0 = load ptr, ptr %_M_finish.i.i.i, align 8
  %1 = load ptr, ptr %d_posVector.i.i, align 8
  %sub.ptr.lhs.cast.i.i.i = ptrtoint ptr %0 to i64
  %sub.ptr.rhs.cast.i.i.i = ptrtoint ptr %1 to i64
  %sub.ptr.sub.i.i.i = sub i64 %sub.ptr.lhs.cast.i.i.i, %sub.ptr.rhs.cast.i.i.i
  %sub.ptr.div.i.i.i = ashr exact i64 %sub.ptr.sub.i.i.i, 2
  %cmp.not.i = icmp ugt i64 %sub.ptr.div.i.i.i, %conv.i
  br i1 %cmp.not.i, label %_ZNK4cvc58internal8DenseMapINS0_13DeltaRationalEE5isKeyEj.exit, label %if.else

_ZNK4cvc58internal8DenseMapINS0_13DeltaRationalEE5isKeyEj.exit: ; preds = %entry
  %add.ptr.i.i = getelementptr inbounds i32, ptr %1, i64 %conv.i
  %2 = load i32, ptr %add.ptr.i.i, align 4
  %cmp4.i.not = icmp eq i32 %2, -1
  br i1 %cmp4.i.not, label %if.else, label %if.then

if.then:                                          ; preds = %_ZNK4cvc58internal8DenseMapINS0_13DeltaRationalEE5isKeyEj.exit
  %d_image.i = getelementptr inbounds i8, ptr %this, i64 120
  %3 = load ptr, ptr %d_image.i, align 8
  %add.ptr.i.i4 = getelementptr inbounds %"class.cvc5::internal::DeltaRational", ptr %3, i64 %conv.i
  br label %return

if.else:                                          ; preds = %entry, %_ZNK4cvc58internal8DenseMapINS0_13DeltaRationalEE5isKeyEj.exit
  %d_image.i5 = getelementptr inbounds i8, ptr %this, i64 48
  %4 = load ptr, ptr %d_image.i5, align 8
  %d_assignment = getelementptr inbounds %"class.cvc5::internal::theory::arith::linear::ArithVariables::VarInfo", ptr %4, i64 %conv.i, i32 2
  br label %return

return:                                           ; preds = %if.else, %if.then
  %retval.0 = phi ptr [ %add.ptr.i.i4, %if.then ], [ %d_assignment, %if.else ]
  ret ptr %retval.0
}